; Function Attrs: nounwind uwtable
define range(i32 -1, 1) i32 @H5C_prep_for_file_close(ptr noundef %0) local_unnamed_addr #0 {
  %2 = alloca i8, align 1
  store i8 0, ptr %2, align 1
  %3 = getelementptr inbounds i8, ptr %0, i64 16
  %4 = load ptr, ptr %3, align 8
  %5 = getelementptr inbounds i8, ptr %4, i64 112
  %6 = load ptr, ptr %5, align 8
  %7 = getelementptr inbounds i8, ptr %6, i64 81
  %8 = load i8, ptr %7, align 1
  %9 = trunc i8 %8 to i1
  br i1 %9, label %17, label %10

10:                                               ; preds = %1
  store i8 1, ptr %7, align 1
  %11 = call i32 @H5C__prep_image_for_file_close(ptr noundef nonnull %0, ptr noundef nonnull %2) #8
  %12 = icmp slt i32 %11, 0
  br i1 %12, label %13, label %17

13:                                               ; preds = %10
  %14 = load i64, ptr @H5E_CACHE_g, align 8
  %15 = load i64, ptr @H5E_CANTCREATE_g, align 8
  %16 = call i32 (ptr, ptr, i32, i64, i64, ptr, ...) @H5E_printf_stack(ptr noundef nonnull @.str.1, ptr noundef nonnull @__func__.H5C_prep_for_file_close, i32 noundef 416, i64 noundef %14, i64 noundef %15, ptr noundef nonnull @.str.5) #8
  br label %17

17:                                               ; preds = %1, %10, %13
  %.0 = phi i32 [ -1, %13 ], [ 0, %10 ], [ 0, %1 ]
  ret i32 %.0
}